target datalayout = "e-m:e-p270:32:32-p271:32:32-p272:64:64-i64:64-i128:128-f80:128-n8:16:32:64-S128"
target triple = "x86_64-pc-linux-gnu"

%struct.png_XYZ = type { i32, i32, i32, i32, i32, i32, i32, i32, i32 }
%struct.png_xy = type { i32, i32, i32, i32, i32, i32, i32, i32 }
%struct.png_colorspace = type { i32, %struct.png_xy, %struct.png_XYZ, i16, i16 }

@.str.75 = private unnamed_addr constant [10 x i8] c"too short\00", align 1

; Function Attrs: nounwind uwtable
define internal i32 @icc_check_length(ptr noalias noundef %0, ptr noalias noundef %1, ptr noundef %2, i32 noundef %3) #0 {
  %5 = alloca i32, align 4
  %6 = alloca ptr, align 8
  %7 = alloca ptr, align 8
  %8 = alloca ptr, align 8
  %9 = alloca i32, align 4
  store ptr %0, ptr %6, align 8
  store ptr %1, ptr %7, align 8
  store ptr %2, ptr %8, align 8
  store i32 %3, ptr %9, align 4
  %10 = load i32, ptr %9, align 4
  %11 = icmp ult i32 %10, 132
  br i1 %11, label %12, label %19

12:                                               ; preds = %4
  %13 = load ptr, ptr %6, align 8
  %14 = load ptr, ptr %7, align 8
  %15 = load ptr, ptr %8, align 8
  %16 = load i32, ptr %9, align 4
  %17 = zext i32 %16 to i64
  %18 = call i32 @png_icc_profile_error(ptr noundef %13, ptr noundef %14, ptr noundef %15, i64 noundef %17, ptr noundef @.str.75)
  store i32 %18, ptr %5, align 4
  br label %20

19:                                               ; preds = %4
  store i32 1, ptr %5, align 4
  br label %20

20:                                               ; preds = %19, %12
  %21 = load i32, ptr %5, align 4
  ret i32 %21
}

; Function Attrs: nounwind uwtable
define i32 @png_colorspace_set_ICC(ptr noalias noundef %0, ptr noalias noundef %1, ptr noundef %2, i32 noundef %3, ptr noundef %4, i32 noundef %5) #0 {
  %7 = alloca i32, align 4
  %8 = alloca ptr, align 8
  %9 = alloca ptr, align 8
  %10 = alloca ptr, align 8
  %11 = alloca i32, align 4
  %12 = alloca ptr, align 8
  %13 = alloca i32, align 4
  store ptr %0, ptr %8, align 8
  store ptr %1, ptr %9, align 8
  store ptr %2, ptr %10, align 8
  store i32 %3, ptr %11, align 4
  store ptr %4, ptr %12, align 8
  store i32 %5, ptr %13, align 4
  %14 = load ptr, ptr %9, align 8
  %15 = getelementptr inbounds %struct.png_colorspace, ptr %14, i32 0, i32 4
  %16 = load i16, ptr %15, align 2
  %17 = zext i16 %16 to i32
  %18 = and i32 %17, 32768
  %19 = icmp ne i32 %18, 0
  br i1 %19, label %20, label %21

20:                                               ; preds = %6
  store i32 0, ptr %7, align 4
  br label %50

21:                                               ; preds = %6
  %22 = load ptr, ptr %8, align 8
  %23 = load ptr, ptr %9, align 8
  %24 = load ptr, ptr %10, align 8
  %25 = load i32, ptr %11, align 4
  %26 = call i32 @icc_check_length(ptr noundef %22, ptr noundef %23, ptr noundef %24, i32 noundef %25)
  %27 = icmp ne i32 %26, 0
  br i1 %27, label %28, label %49

28:                                               ; preds = %21
  %29 = load ptr, ptr %8, align 8
  %30 = load ptr, ptr %9, align 8
  %31 = load ptr, ptr %10, align 8
  %32 = load i32, ptr %11, align 4
  %33 = load ptr, ptr %12, align 8
  %34 = load i32, ptr %13, align 4
  %35 = call i32 @png_icc_check_header(ptr noundef %29, ptr noundef %30, ptr noundef %31, i32 noundef %32, ptr noundef %33, i32 noundef %34)
  %36 = icmp ne i32 %35, 0
  br i1 %36, label %37, label %49

37:                                               ; preds = %28
  %38 = load ptr, ptr %8, align 8
  %39 = load ptr, ptr %9, align 8
  %40 = load ptr, ptr %10, align 8
  %41 = load i32, ptr %11, align 4
  %42 = load ptr, ptr %12, align 8
  %43 = call i32 @png_icc_check_tag_table(ptr noundef %38, ptr noundef %39, ptr noundef %40, i32 noundef %41, ptr noundef %42)
  %44 = icmp ne i32 %43, 0
  br i1 %44, label %45, label %49

45:                                               ; preds = %37
  %46 = load ptr, ptr %8, align 8
  %47 = load ptr, ptr %9, align 8
  %48 = load ptr, ptr %12, align 8
  call void @png_icc_set_sRGB(ptr noundef %46, ptr noundef %47, ptr noundef %48, i64 noundef 0)
  store i32 1, ptr %7, align 4
  br label %50

49:                                               ; preds = %37, %28, %21
  store i32 0, ptr %7, align 4
  br label %50

50:                                               ; preds = %49, %45, %20
  %51 = load i32, ptr %7, align 4
  ret i32 %51
}