; Function Attrs: nounwind uwtable
define range(i32 0, 2) i32 @png_colorspace_set_ICC(ptr noalias noundef %0, ptr noalias noundef %1, ptr noundef %2, i32 noundef %3, ptr noundef %4, i32 noundef %5) local_unnamed_addr #0 {
  %7 = getelementptr inbounds i8, ptr %1, i64 74
  %8 = load i16, ptr %7, align 2
  %.not = icmp sgt i16 %8, -1
  br i1 %.not, label %9, label %16

9:                                                ; preds = %6
  %10 = icmp ult i32 %3, 132
  br i1 %10, label %icc_check_length.exit.thread, label %icc_check_length.exit

icc_check_length.exit.thread:                     ; preds = %9
  %11 = zext nneg i32 %3 to i64
  tail call fastcc void @png_icc_profile_error(ptr noundef %0, ptr noundef nonnull %1, ptr noundef %2, i64 noundef %11, ptr noundef nonnull @.str.75)
  br label %16

icc_check_length.exit:                            ; preds = %9
  %12 = tail call i32 @png_icc_check_header(ptr noundef %0, ptr noundef nonnull %1, ptr noundef %2, i32 noundef %3, ptr noundef %4, i32 noundef %5)
  %.not20 = icmp eq i32 %12, 0
  br i1 %.not20, label %16, label %13

13:                                               ; preds = %icc_check_length.exit
  %14 = tail call i32 @png_icc_check_tag_table(ptr noundef %0, ptr noundef nonnull %1, ptr noundef %2, i32 noundef %3, ptr noundef %4)
  %.not21 = icmp eq i32 %14, 0
  br i1 %.not21, label %16, label %15

15:                                               ; preds = %13
  tail call void @png_icc_set_sRGB(ptr noundef %0, ptr noundef nonnull %1, ptr noundef %4, i64 noundef 0)
  br label %16

16:                                               ; preds = %icc_check_length.exit.thread, %icc_check_length.exit, %13, %6, %15
  %.0 = phi i32 [ 1, %15 ], [ 0, %6 ], [ 0, %13 ], [ 0, %icc_check_length.exit ], [ 0, %icc_check_length.exit.thread ]
  ret i32 %.0
}